; Function Attrs: mustprogress nofree nounwind willreturn memory(read, inaccessiblemem: none) uwtable
define hidden noundef zeroext i1 @_Z2ltRK6symbolS1_(ptr noundef nonnull readonly align 8 captures(none) dereferenceable(8) %0, ptr noundef nonnull readonly align 8 captures(none) dereferenceable(8) %1) local_unnamed_addr #6 {
  %3 = load ptr, ptr %0, align 8, !tbaa !34
  %4 = load ptr, ptr %1, align 8, !tbaa !34
  %5 = icmp eq ptr %3, %4
  br i1 %5, label %26, label %6

6:                                                ; preds = %2
  %7 = ptrtoint ptr %3 to i64
  %8 = and i64 %7, 7
  %9 = icmp eq i64 %8, 1
  %10 = ptrtoint ptr %4 to i64
  %11 = and i64 %10, 7
  %12 = icmp eq i64 %11, 1
  br i1 %9, label %13, label %20

13:                                               ; preds = %6
  br i1 %12, label %14, label %26

14:                                               ; preds = %13
  %15 = lshr i64 %7, 3
  %16 = trunc i64 %15 to i32
  %17 = lshr i64 %10, 3
  %18 = trunc i64 %17 to i32
  %19 = icmp ult i32 %16, %18
  br label %26

20:                                               ; preds = %6
  br i1 %12, label %26, label %21

21:                                               ; preds = %20
  %.not = icmp eq ptr %3, null
  br i1 %.not, label %26, label %22

22:                                               ; preds = %21
  %.not12 = icmp eq ptr %4, null
  br i1 %.not12, label %26, label %23

23:                                               ; preds = %22
  %24 = tail call i32 @strcmp(ptr noundef nonnull dereferenceable(1) %3, ptr noundef nonnull dereferenceable(1) %4) #20
  %25 = icmp slt i32 %24, 0
  br label %26

26:                                               ; preds = %22, %21, %20, %13, %2, %23, %14
  %.0 = phi i1 [ %19, %14 ], [ %25, %23 ], [ false, %2 ], [ true, %13 ], [ false, %20 ], [ true, %21 ], [ false, %22 ]
  ret i1 %.0
}